; Function Attrs: mustprogress uwtable
define void @_ZN7Imf_3_414TiledInputFileC2EPKci(ptr noundef nonnull align 8 dereferenceable(32) %0, ptr noundef %1, i32 noundef %2) unnamed_addr #3 align 2 personality ptr @__gxx_personality_v0 {
  %4 = alloca %"class.Imf_3_4::ContextInitializer", align 8
  call void @llvm.lifetime.start.p0(i64 120, ptr nonnull %4) #28
  %5 = getelementptr inbounds nuw i8, ptr %4, i64 104
  store i64 0, ptr %5, align 8
  store i64 104, ptr %4, align 8, !tbaa !86
  %6 = getelementptr inbounds nuw i8, ptr %4, i64 8
  %7 = getelementptr inbounds nuw i8, ptr %4, i64 88
  call void @llvm.memset.p0.i64(ptr noundef nonnull align 8 dereferenceable(80) %6, i8 0, i64 80, i1 false)
  store i32 -2, ptr %7, align 8, !tbaa !88
  %8 = getelementptr inbounds nuw i8, ptr %4, i64 92
  store float -1.000000e+00, ptr %8, align 4, !tbaa !89
  %9 = getelementptr inbounds nuw i8, ptr %4, i64 96
  %10 = getelementptr inbounds nuw i8, ptr %4, i64 104
  store i64 2, ptr %9, align 8
  store i32 3, ptr %10, align 8, !tbaa !90
  %11 = getelementptr inbounds nuw i8, ptr %4, i64 112
  store ptr null, ptr %11, align 8, !tbaa !94
  call void @_ZN7Imf_3_414TiledInputFileC2EPKcRKNS_18ContextInitializerEi(ptr noundef nonnull align 8 dereferenceable(32) %0, ptr noundef %1, ptr noundef nonnull align 8 dereferenceable(120) %4, i32 noundef %2)
  call void @llvm.lifetime.end.p0(i64 120, ptr nonnull %4) #28
  ret void
}